Archive member included because of file (symbol)

/Users/Ricky/Pebble/tertiary_text/lib/libpebble.a(tmpE96Sgtpebble_os.o)
                              src/tertiary_text.c.1.o (app_event_loop)
/Users/Ricky/pebble-dev/arm-cs-tools/bin/../lib/gcc/arm-none-eabi/4.6.3/../../../../arm-none-eabi/lib/thumb2/libc.a(lib_a-memset.o)
                              src/tertiary_text.c.1.o (memset)

Allocating common symbols
Common symbol       size              file

buttons2            0xa8              src/tertiary_text.c.1.o
wordsYouWrite       0x38              src/tertiary_text.c.1.o
text_buffer         0x3c              src/tertiary_text.c.1.o
top                 0x4               src/tertiary_text.c.1.o
textLayer           0x38              src/tertiary_text.c.1.o
end                 0x4               src/tertiary_text.c.1.o
buttons3            0xa8              src/tertiary_text.c.1.o
size                0x4               src/tertiary_text.c.1.o
buttons1            0xa8              src/tertiary_text.c.1.o
window              0x58              src/tertiary_text.c.1.o

Memory Configuration

Name             Origin             Length             Attributes
APP              0x0000000000000000 0x0000000000006000 xrw
*default*        0x0000000000000000 0xffffffffffffffff

Linker script and memory map

LOAD /Users/Ricky/pebble-dev/arm-cs-tools/bin/../lib/gcc/arm-none-eabi/4.6.3/thumb2/crti.o
LOAD /Users/Ricky/pebble-dev/arm-cs-tools/bin/../lib/gcc/arm-none-eabi/4.6.3/thumb2/crtbegin.o
LOAD src/tertiary_text.c.1.o
LOAD /Users/Ricky/Pebble/tertiary_text/lib/libpebble.a
START GROUP
LOAD /Users/Ricky/pebble-dev/arm-cs-tools/bin/../lib/gcc/arm-none-eabi/4.6.3/thumb2/libgcc.a
LOAD /Users/Ricky/pebble-dev/arm-cs-tools/bin/../lib/gcc/arm-none-eabi/4.6.3/../../../../arm-none-eabi/lib/thumb2/libc.a
END GROUP
LOAD /Users/Ricky/pebble-dev/arm-cs-tools/bin/../lib/gcc/arm-none-eabi/4.6.3/thumb2/crtend.o
LOAD /Users/Ricky/pebble-dev/arm-cs-tools/bin/../lib/gcc/arm-none-eabi/4.6.3/thumb2/crtn.o

.header         0x0000000000000000       0x7c
 *(.pbl_header)
 .pbl_header    0x0000000000000000       0x7c src/tertiary_text.c.1.o
                0x0000000000000000                __pbl_app_info

.text           0x000000000000007c     0x17bc
 *(.text)
 .text          0x000000000000007c        0x0 /Users/Ricky/pebble-dev/arm-cs-tools/bin/../lib/gcc/arm-none-eabi/4.6.3/thumb2/crti.o
 .text          0x000000000000007c       0x68 /Users/Ricky/pebble-dev/arm-cs-tools/bin/../lib/gcc/arm-none-eabi/4.6.3/thumb2/crtbegin.o
 .text          0x00000000000000e4      0xbc8 src/tertiary_text.c.1.o
                0x00000000000000e4                change_set
                0x00000000000001b4                next
                0x00000000000001f0                up_long_release_handler
                0x0000000000000204                select_long_release_handler
                0x0000000000000218                down_long_release_handler
                0x000000000000022c                clickButton
                0x000000000000038c                up_single_click_handler
                0x00000000000003a8                select_single_click_handler
                0x00000000000003c4                down_single_click_handler
                0x00000000000003e0                common_long
                0x0000000000000414                up_long_click_handler
                0x000000000000043c                select_long_click_handler
                0x00000000000004b4                down_long_click_handler
                0x0000000000000560                set_menu
                0x000000000000058c                click_config_provider
                0x000000000000066c                drawMenu
                0x0000000000000740                drawSides
                0x00000000000009bc                initSidesAndText
                0x0000000000000ba4                handle_init
                0x0000000000000c60                pbl_main
 .text          0x0000000000000cac      0xb8c /Users/Ricky/Pebble/tertiary_text/lib/libpebble.a(tmpE96Sgtpebble_os.o)
                0x0000000000000cac                animation_init
                0x0000000000000cb8                animation_set_delay
                0x0000000000000cc4                animation_set_duration
                0x0000000000000cd0                animation_set_curve
                0x0000000000000cdc                animation_set_handlers
                0x0000000000000ce8                animation_set_implementation
                0x0000000000000cf4                animation_get_context
                0x0000000000000d00                animation_schedule
                0x0000000000000d0c                animation_unschedule
                0x0000000000000d18                animation_unschedule_all
                0x0000000000000d24                animation_is_scheduled
                0x0000000000000d30                app_timer_send_event
                0x0000000000000d3c                app_timer_cancel_event
                0x0000000000000d48                app_event_loop
                0x0000000000000d54                bmp_init_container
                0x0000000000000d60                bmp_deinit_container
                0x0000000000000d6c                cos_lookup
                0x0000000000000d78                fonts_get_system_font
                0x0000000000000d84                fonts_load_custom_font
                0x0000000000000d90                fonts_unload_custom_font
                0x0000000000000d9c                graphics_context_set_stroke_color
                0x0000000000000da8                graphics_context_set_fill_color
                0x0000000000000db4                graphics_context_set_text_color
                0x0000000000000dc0                graphics_context_set_compositing_mode
                0x0000000000000dcc                graphics_draw_pixel
                0x0000000000000dd8                graphics_draw_line
                0x0000000000000de4                graphics_fill_rect
                0x0000000000000df0                graphics_draw_circle
                0x0000000000000dfc                graphics_fill_circle
                0x0000000000000e08                graphics_draw_round_rect
                0x0000000000000e14                get_time
                0x0000000000000e20                gpath_init
                0x0000000000000e2c                gpath_move_to
                0x0000000000000e38                gpath_rotate_to
                0x0000000000000e44                gpath_draw_outline
                0x0000000000000e50                gpath_draw_filled
                0x0000000000000e5c                grect_center_point
                0x0000000000000e68                layer_mark_dirty
                0x0000000000000e74                layer_remove_from_parent
                0x0000000000000e80                layer_add_child
                0x0000000000000e8c                layer_get_frame
                0x0000000000000e98                layer_set_frame
                0x0000000000000ea4                layer_set_hidden
                0x0000000000000eb0                layer_init
                0x0000000000000ebc                light_enable
                0x0000000000000ec8                light_enable_interaction
                0x0000000000000ed4                psleep
                0x0000000000000ee0                resource_init_current_app
                0x0000000000000eec                resource_get_handle
                0x0000000000000ef8                resource_load
                0x0000000000000f04                resource_load_byte_range
                0x0000000000000f10                resource_size
                0x0000000000000f1c                rotbmp_deinit_container
                0x0000000000000f28                rotbmp_init_container
                0x0000000000000f34                rotbmp_pair_deinit_container
                0x0000000000000f40                rotbmp_pair_init_container
                0x0000000000000f4c                rotbmp_pair_layer_set_src_ic
                0x0000000000000f58                rotbmp_pair_layer_set_angle
                0x0000000000000f64                window_init
                0x0000000000000f70                window_stack_push
                0x0000000000000f7c                window_set_click_config_provider
                0x0000000000000f88                window_set_background_color
                0x0000000000000f94                window_render
                0x0000000000000fa0                window_set_fullscreen
                0x0000000000000fac                sin_lookup
                0x0000000000000fb8                string_format_time
                0x0000000000000fc4                text_layer_init
                0x0000000000000fd0                text_layer_get_text
                0x0000000000000fdc                text_layer_set_text
                0x0000000000000fe8                text_layer_set_font
                0x0000000000000ff4                text_layer_set_text_color
                0x0000000000001000                text_layer_set_background_color
                0x000000000000100c                vibes_double_pulse
                0x0000000000001018                vibes_enqueue_custom_pattern
                0x0000000000001024                vibes_long_pulse
                0x0000000000001030                vibes_short_pulse
                0x000000000000103c                app_get_current_graphics_context
                0x0000000000001048                clock_is_24h_style
                0x0000000000001054                property_animation_init_layer_frame
                0x0000000000001060                text_layer_set_text_alignment
                0x000000000000106c                graphics_draw_bitmap_in_rect
                0x0000000000001078                graphics_text_draw
                0x0000000000001084                layer_set_bounds
                0x0000000000001090                layer_get_bounds
                0x000000000000109c                layer_set_update_proc
                0x00000000000010a8                layer_get_window
                0x00000000000010b4                layer_remove_child_layers
                0x00000000000010c0                layer_insert_below_sibling
                0x00000000000010cc                layer_insert_above_sibling
                0x00000000000010d8                layer_get_hidden
                0x00000000000010e4                layer_set_clips
                0x00000000000010f0                layer_get_clips
                0x00000000000010fc                text_layer_get_max_used_size
                0x0000000000001108                text_layer_set_size
                0x0000000000001114                text_layer_set_overflow_mode
                0x0000000000001120                graphics_text_layout_get_max_used_size
                0x000000000000112c                inverter_layer_init
                0x0000000000001138                bitmap_layer_init
                0x0000000000001144                bitmap_layer_set_bitmap
                0x0000000000001150                bitmap_layer_set_alignment
                0x000000000000115c                bitmap_layer_set_background_color
                0x0000000000001168                bitmap_layer_set_compositing_mode
                0x0000000000001174                heap_bitmap_init
                0x0000000000001180                heap_bitmap_deinit
                0x000000000000118c                click_recognizer_get_button_id
                0x0000000000001198                click_number_of_clicks_counted
                0x00000000000011a4                menu_cell_basic_draw
                0x00000000000011b0                menu_cell_title_draw
                0x00000000000011bc                menu_cell_basic_header_draw
                0x00000000000011c8                menu_layer_init
                0x00000000000011d4                menu_layer_get_layer
                0x00000000000011e0                menu_layer_set_callbacks
                0x00000000000011ec                menu_layer_set_click_config_onto_window
                0x00000000000011f8                menu_layer_set_selected_next
                0x0000000000001204                menu_layer_set_selected_index
                0x0000000000001210                menu_layer_reload_data
                0x000000000000121c                menu_index_compare
                0x0000000000001228                scroll_layer_init
                0x0000000000001234                scroll_layer_add_child
                0x0000000000001240                scroll_layer_set_click_config_onto_window
                0x000000000000124c                scroll_layer_set_callbacks
                0x0000000000001258                scroll_layer_set_context
                0x0000000000001264                scroll_layer_set_content_offset
                0x0000000000001270                scroll_layer_get_content_offset
                0x000000000000127c                scroll_layer_set_content_size
                0x0000000000001288                scroll_layer_get_content_size
                0x0000000000001294                scroll_layer_set_frame
                0x00000000000012a0                scroll_layer_scroll_up_click_handler
                0x00000000000012ac                scroll_layer_scroll_down_click_handler
                0x00000000000012b8                simple_menu_layer_init
                0x00000000000012c4                simple_menu_layer_get_layer
                0x00000000000012d0                simple_menu_layer_get_selected_index
                0x00000000000012dc                simple_menu_layer_set_selected_index
                0x00000000000012e8                window_deinit
                0x00000000000012f4                window_set_click_config_provider_with_context
                0x0000000000001300                window_get_click_config_provider
                0x000000000000130c                window_set_window_handlers
                0x0000000000001318                window_get_root_layer
                0x0000000000001324                window_get_fullscreen
                0x0000000000001330                window_set_status_bar_icon
                0x000000000000133c                window_is_loaded
                0x0000000000001348                window_stack_pop
                0x0000000000001354                window_stack_pop_all
                0x0000000000001360                window_stack_contains_window
                0x0000000000001368                window_stack_get_top_window
                0x0000000000001370                window_stack_remove
                0x0000000000001378                property_animation_init
                0x0000000000001380                property_animation_update_int16
                0x0000000000001388                property_animation_update_gpoint
                0x0000000000001390                property_animation_update_grect
                0x0000000000001398                app_message_register_callbacks
                0x00000000000013a0                app_message_deregister_callbacks
                0x00000000000013a8                app_message_out_get
                0x00000000000013b0                app_message_out_send
                0x00000000000013b8                app_message_out_release
                0x00000000000013c0                app_sync_init
                0x00000000000013c8                app_sync_deinit
                0x00000000000013d0                app_sync_set
                0x00000000000013d8                app_sync_get
                0x00000000000013e0                dict_calc_buffer_size
                0x00000000000013e8                dict_write_begin
                0x00000000000013f0                dict_write_data
                0x00000000000013f8                dict_write_cstring
                0x0000000000001400                dict_write_int
                0x0000000000001408                dict_write_uint8
                0x0000000000001410                dict_write_uint16
                0x0000000000001418                dict_write_uint32
                0x0000000000001420                dict_write_int8
                0x0000000000001428                dict_write_int16
                0x0000000000001430                dict_write_int32
                0x0000000000001438                dict_write_end
                0x0000000000001440                dict_read_begin_from_buffer
                0x0000000000001448                dict_read_next
                0x0000000000001450                dict_read_first
                0x0000000000001458                dict_serialize_tuplets
                0x0000000000001460                dict_serialize_tuplets_to_buffer
                0x0000000000001468                dict_serialize_tuplets_to_buffer_with_iter
                0x0000000000001470                dict_write_tuplet
                0x0000000000001478                dict_calc_buffer_size_from_tuplets
                0x0000000000001480                dict_merge
                0x0000000000001488                dict_find
                0x0000000000001490                action_bar_layer_init
                0x0000000000001498                action_bar_layer_set_context
                0x00000000000014a0                action_bar_layer_set_click_config_provider
                0x00000000000014a8                action_bar_layer_set_icon
                0x00000000000014b0                action_bar_layer_clear_icon
                0x00000000000014b8                action_bar_layer_add_to_window
                0x00000000000014c0                action_bar_layer_remove_from_window
                0x00000000000014c8                action_bar_layer_set_background_color
                0x00000000000014d0                number_window_init
                0x00000000000014d8                number_window_set_label
                0x00000000000014e0                number_window_set_max
                0x00000000000014e8                number_window_set_min
                0x00000000000014f0                number_window_set_value
                0x00000000000014f8                number_window_set_step_size
                0x0000000000001500                number_window_get_value
                0x0000000000001508                clock_copy_time_string
 .text          0x0000000000001838        0x0 /Users/Ricky/pebble-dev/arm-cs-tools/bin/../lib/gcc/arm-none-eabi/4.6.3/../../../../arm-none-eabi/lib/thumb2/libc.a(lib_a-memset.o)
 .text          0x0000000000001838        0x0 /Users/Ricky/pebble-dev/arm-cs-tools/bin/../lib/gcc/arm-none-eabi/4.6.3/thumb2/crtend.o
 .text          0x0000000000001838        0x0 /Users/Ricky/pebble-dev/arm-cs-tools/bin/../lib/gcc/arm-none-eabi/4.6.3/thumb2/crtn.o

.glue_7         0x0000000000001838        0x0
 .glue_7        0x0000000000000000        0x0 linker stubs

.glue_7t        0x0000000000001838        0x0
 .glue_7t       0x0000000000000000        0x0 linker stubs

.vfp11_veneer   0x0000000000001838        0x0
 .vfp11_veneer  0x0000000000000000        0x0 linker stubs

.v4_bx          0x0000000000001838        0x0
 .v4_bx         0x0000000000000000        0x0 linker stubs

.init           0x0000000000001838        0xc
 .init          0x0000000000001838        0x4 /Users/Ricky/pebble-dev/arm-cs-tools/bin/../lib/gcc/arm-none-eabi/4.6.3/thumb2/crti.o
                0x0000000000001838                _init
 .init          0x000000000000183c        0x8 /Users/Ricky/pebble-dev/arm-cs-tools/bin/../lib/gcc/arm-none-eabi/4.6.3/thumb2/crtn.o

.fini           0x0000000000001844        0xc
 .fini          0x0000000000001844        0x4 /Users/Ricky/pebble-dev/arm-cs-tools/bin/../lib/gcc/arm-none-eabi/4.6.3/thumb2/crti.o
                0x0000000000001844                _fini
 .fini          0x0000000000001848        0x8 /Users/Ricky/pebble-dev/arm-cs-tools/bin/../lib/gcc/arm-none-eabi/4.6.3/thumb2/crtn.o

.iplt           0x0000000000001850        0x0
 .iplt          0x0000000000000000        0x0 /Users/Ricky/pebble-dev/arm-cs-tools/bin/../lib/gcc/arm-none-eabi/4.6.3/thumb2/crti.o

.text.memset    0x0000000000001850       0x10
 .text.memset   0x0000000000001850       0x10 /Users/Ricky/pebble-dev/arm-cs-tools/bin/../lib/gcc/arm-none-eabi/4.6.3/../../../../arm-none-eabi/lib/thumb2/libc.a(lib_a-memset.o)
                0x0000000000001850                memset

.data           0x0000000000001860       0x68
 *(.data)
 .data          0x0000000000001860        0x0 /Users/Ricky/pebble-dev/arm-cs-tools/bin/../lib/gcc/arm-none-eabi/4.6.3/thumb2/crti.o
 .data          0x0000000000001860        0x4 /Users/Ricky/pebble-dev/arm-cs-tools/bin/../lib/gcc/arm-none-eabi/4.6.3/thumb2/crtbegin.o
                0x0000000000001860                __dso_handle
 .data          0x0000000000001864       0x64 src/tertiary_text.c.1.o
                0x0000000000001864                caps
                0x0000000000001880                letters
                0x000000000000189c                numsym
                0x00000000000018b8                set1
                0x00000000000018bc                set2
                0x00000000000018c0                set3
                0x00000000000018c4                cur_set
 .data          0x00000000000018c8        0x0 /Users/Ricky/Pebble/tertiary_text/lib/libpebble.a(tmpE96Sgtpebble_os.o)
 .data          0x00000000000018c8        0x0 /Users/Ricky/pebble-dev/arm-cs-tools/bin/../lib/gcc/arm-none-eabi/4.6.3/../../../../arm-none-eabi/lib/thumb2/libc.a(lib_a-memset.o)
 .data          0x00000000000018c8        0x0 /Users/Ricky/pebble-dev/arm-cs-tools/bin/../lib/gcc/arm-none-eabi/4.6.3/thumb2/crtend.o
 .data          0x00000000000018c8        0x0 /Users/Ricky/pebble-dev/arm-cs-tools/bin/../lib/gcc/arm-none-eabi/4.6.3/thumb2/crtn.o

.igot.plt       0x00000000000018c8        0x0
 .igot.plt      0x0000000000000000        0x0 /Users/Ricky/pebble-dev/arm-cs-tools/bin/../lib/gcc/arm-none-eabi/4.6.3/thumb2/crti.o

.got            0x00000000000018c8       0x28
 .got           0x00000000000018c8       0x28 /Users/Ricky/pebble-dev/arm-cs-tools/bin/../lib/gcc/arm-none-eabi/4.6.3/thumb2/crti.o

.got.plt        0x00000000000018f0        0xc
 .got.plt       0x00000000000018f0        0xc /Users/Ricky/pebble-dev/arm-cs-tools/bin/../lib/gcc/arm-none-eabi/4.6.3/thumb2/crti.o
                0x00000000000018f0                _GLOBAL_OFFSET_TABLE_

.init_array     0x00000000000018fc        0x4
 .init_array    0x00000000000018fc        0x4 /Users/Ricky/pebble-dev/arm-cs-tools/bin/../lib/gcc/arm-none-eabi/4.6.3/thumb2/crtbegin.o

.fini_array     0x0000000000001900        0x4
 .fini_array    0x0000000000001900        0x4 /Users/Ricky/pebble-dev/arm-cs-tools/bin/../lib/gcc/arm-none-eabi/4.6.3/thumb2/crtbegin.o

.jcr            0x0000000000001904        0x4
 .jcr           0x0000000000001904        0x0 /Users/Ricky/pebble-dev/arm-cs-tools/bin/../lib/gcc/arm-none-eabi/4.6.3/thumb2/crtbegin.o
 .jcr           0x0000000000001904        0x4 /Users/Ricky/pebble-dev/arm-cs-tools/bin/../lib/gcc/arm-none-eabi/4.6.3/thumb2/crtend.o

.data.rel       0x0000000000001908       0x34
 .data.rel      0x0000000000001908       0x34 src/tertiary_text.c.1.o
                0x0000000000001908                bbuttons
                0x0000000000001914                btexts
                0x0000000000001920                setlist
                0x000000000000192c                rotate_text
                0x0000000000001938                master

.data.rel.local
                0x000000000000193c       0x30
 .data.rel.local
                0x000000000000193c       0x30 src/tertiary_text.c.1.o
                0x000000000000193c                btext1
                0x0000000000001948                btext2
                0x0000000000001954                btext3
                0x0000000000001960                cases

.bss            0x000000000000196c      0x32c
 *(.bss)
 .bss           0x000000000000196c        0x0 /Users/Ricky/pebble-dev/arm-cs-tools/bin/../lib/gcc/arm-none-eabi/4.6.3/thumb2/crti.o
 .bss           0x000000000000196c       0x1c /Users/Ricky/pebble-dev/arm-cs-tools/bin/../lib/gcc/arm-none-eabi/4.6.3/thumb2/crtbegin.o
 .bss           0x0000000000001988        0x8 src/tertiary_text.c.1.o
                0x0000000000001988                menu
                0x0000000000001989                blackout
                0x000000000000198c                pos
 .bss           0x0000000000001990        0x0 /Users/Ricky/Pebble/tertiary_text/lib/libpebble.a(tmpE96Sgtpebble_os.o)
 .bss           0x0000000000001990        0x0 /Users/Ricky/pebble-dev/arm-cs-tools/bin/../lib/gcc/arm-none-eabi/4.6.3/../../../../arm-none-eabi/lib/thumb2/libc.a(lib_a-memset.o)
 .bss           0x0000000000001990        0x0 /Users/Ricky/pebble-dev/arm-cs-tools/bin/../lib/gcc/arm-none-eabi/4.6.3/thumb2/crtend.o
 .bss           0x0000000000001990        0x0 /Users/Ricky/pebble-dev/arm-cs-tools/bin/../lib/gcc/arm-none-eabi/4.6.3/thumb2/crtn.o
 COMMON         0x0000000000001990      0x308 src/tertiary_text.c.1.o
                0x0000000000001990                buttons2
                0x0000000000001a38                wordsYouWrite
                0x0000000000001a70                text_buffer
                0x0000000000001aac                top
                0x0000000000001ab0                textLayer
                0x0000000000001ae8                end
                0x0000000000001aec                buttons3
                0x0000000000001b94                size
                0x0000000000001b98                buttons1
                0x0000000000001c40                window

DISCARD         0x0000000000001c98        0x4
 libc.a(*)
 libm.a(*)
 libgcc.a(*)
 *(.eh_frame)
 .eh_frame      0x0000000000001c98        0x0 /Users/Ricky/pebble-dev/arm-cs-tools/bin/../lib/gcc/arm-none-eabi/4.6.3/thumb2/crtbegin.o
 .eh_frame      0x0000000000001c98        0x4 /Users/Ricky/pebble-dev/arm-cs-tools/bin/../lib/gcc/arm-none-eabi/4.6.3/thumb2/crtend.o
OUTPUT(/Users/Ricky/Pebble/tertiary_text/build/pebble-app.elf elf32-littlearm)

.rodata         0x0000000000001c9c       0xb8
 .rodata        0x0000000000001c9c       0xb8 src/tertiary_text.c.1.o

.rel.dyn        0x0000000000001d54        0x0
 .rel.iplt      0x0000000000000000        0x0 /Users/Ricky/pebble-dev/arm-cs-tools/bin/../lib/gcc/arm-none-eabi/4.6.3/thumb2/crti.o
 .rel.got       0x0000000000000000        0x0 /Users/Ricky/pebble-dev/arm-cs-tools/bin/../lib/gcc/arm-none-eabi/4.6.3/thumb2/crti.o

.ARM.attributes
                0x0000000000000000       0x27
 .ARM.attributes
                0x0000000000000000       0x1b /Users/Ricky/pebble-dev/arm-cs-tools/bin/../lib/gcc/arm-none-eabi/4.6.3/thumb2/crti.o
 .ARM.attributes
                0x000000000000001b       0x2b /Users/Ricky/pebble-dev/arm-cs-tools/bin/../lib/gcc/arm-none-eabi/4.6.3/thumb2/crtbegin.o
 .ARM.attributes
                0x0000000000000046       0x33 src/tertiary_text.c.1.o
 .ARM.attributes
                0x0000000000000079       0x21 /Users/Ricky/Pebble/tertiary_text/lib/libpebble.a(tmpE96Sgtpebble_os.o)
 .ARM.attributes
                0x000000000000009a       0x2b /Users/Ricky/pebble-dev/arm-cs-tools/bin/../lib/gcc/arm-none-eabi/4.6.3/../../../../arm-none-eabi/lib/thumb2/libc.a(lib_a-memset.o)
 .ARM.attributes
                0x00000000000000c5       0x2b /Users/Ricky/pebble-dev/arm-cs-tools/bin/../lib/gcc/arm-none-eabi/4.6.3/thumb2/crtend.o
 .ARM.attributes
                0x00000000000000f0       0x1b /Users/Ricky/pebble-dev/arm-cs-tools/bin/../lib/gcc/arm-none-eabi/4.6.3/thumb2/crtn.o

.comment        0x0000000000000000       0x4e
 .comment       0x0000000000000000       0x4e /Users/Ricky/pebble-dev/arm-cs-tools/bin/../lib/gcc/arm-none-eabi/4.6.3/thumb2/crtbegin.o
                                         0x4f (size before relaxing)
 .comment       0x0000000000000000       0x4f src/tertiary_text.c.1.o
 .comment       0x0000000000000000       0x4f /Users/Ricky/pebble-dev/arm-cs-tools/bin/../lib/gcc/arm-none-eabi/4.6.3/../../../../arm-none-eabi/lib/thumb2/libc.a(lib_a-memset.o)
 .comment       0x0000000000000000       0x4f /Users/Ricky/pebble-dev/arm-cs-tools/bin/../lib/gcc/arm-none-eabi/4.6.3/thumb2/crtend.o

.debug_line     0x0000000000000000      0x425
 .debug_line    0x0000000000000000       0x71 /Users/Ricky/pebble-dev/arm-cs-tools/bin/../lib/gcc/arm-none-eabi/4.6.3/thumb2/crti.o
 .debug_line    0x0000000000000071      0x33f src/tertiary_text.c.1.o
 .debug_line    0x00000000000003b0       0x75 /Users/Ricky/pebble-dev/arm-cs-tools/bin/../lib/gcc/arm-none-eabi/4.6.3/thumb2/crtn.o

.debug_info     0x0000000000000000     0x198a
 .debug_info    0x0000000000000000       0xb2 /Users/Ricky/pebble-dev/arm-cs-tools/bin/../lib/gcc/arm-none-eabi/4.6.3/thumb2/crti.o
 .debug_info    0x00000000000000b2     0x1826 src/tertiary_text.c.1.o
 .debug_info    0x00000000000018d8       0xb2 /Users/Ricky/pebble-dev/arm-cs-tools/bin/../lib/gcc/arm-none-eabi/4.6.3/thumb2/crtn.o

.debug_abbrev   0x0000000000000000      0x2d2
 .debug_abbrev  0x0000000000000000       0x12 /Users/Ricky/pebble-dev/arm-cs-tools/bin/../lib/gcc/arm-none-eabi/4.6.3/thumb2/crti.o
 .debug_abbrev  0x0000000000000012      0x2ae src/tertiary_text.c.1.o
 .debug_abbrev  0x00000000000002c0       0x12 /Users/Ricky/pebble-dev/arm-cs-tools/bin/../lib/gcc/arm-none-eabi/4.6.3/thumb2/crtn.o

.debug_aranges  0x0000000000000000       0x70
 .debug_aranges
                0x0000000000000000       0x28 /Users/Ricky/pebble-dev/arm-cs-tools/bin/../lib/gcc/arm-none-eabi/4.6.3/thumb2/crti.o
 .debug_aranges
                0x0000000000000028       0x20 src/tertiary_text.c.1.o
 .debug_aranges
                0x0000000000000048       0x28 /Users/Ricky/pebble-dev/arm-cs-tools/bin/../lib/gcc/arm-none-eabi/4.6.3/thumb2/crtn.o

.debug_ranges   0x0000000000000000       0x40
 .debug_ranges  0x0000000000000000       0x20 /Users/Ricky/pebble-dev/arm-cs-tools/bin/../lib/gcc/arm-none-eabi/4.6.3/thumb2/crti.o
 .debug_ranges  0x0000000000000020       0x20 /Users/Ricky/pebble-dev/arm-cs-tools/bin/../lib/gcc/arm-none-eabi/4.6.3/thumb2/crtn.o

.debug_loc      0x0000000000000000      0x44c
 .debug_loc     0x0000000000000000      0x44c src/tertiary_text.c.1.o

.debug_str      0x0000000000000000      0xd1e
 .debug_str     0x0000000000000000      0xd1e src/tertiary_text.c.1.o
                                        0xe06 (size before relaxing)

.debug_frame    0x0000000000000000      0x278
 .debug_frame   0x0000000000000000      0x278 src/tertiary_text.c.1.o
